(dp0
S'cookies'
p1
(dp2
S'wxloadtime'
p3
S'1504476791'
p4
sS'webwx_data_ticket'
p5
S'gSdLw90+axeCwNKYtSwiK917'
p6
sS'wxuin'
p7
S'1939681350'
p8
sS'login_frequency'
p9
S'2'
p10
sS'MM_WX_NOTIFY_STATE'
p11
S'1'
p12
sS'MM_WX_SOUND_STATE'
p13
g12
sS'webwx_auth_ticket'
p14
S'CIsBEIDggd8CGoABpdibMdNREShXwSbpTvjHI/SNBvVkfBBQ0QtWgnRZXIaEy0s0FkPqGqR2KTwR6Qu91+YSfj+sXy8NQlak17Q/sd8qm/iW4qJZVS77MbudVP/X6HfakmbaC2JbmsxfnmE/BTckyoQK5lPnhUvm3U3MmJjyW/eSCtufBvLAjCVsCKc='
p15
sS'last_wxuin'
p16
S'1939681350'
p17
sS'webwxuvid'
p18
S'a8d998e839f8b1227d39a11f9521e44e7aa3cf098b9f7901198c5f9131aae926bfb7e3ec12bef6ff06ce943ce3c10885'
p19
sS'wxpluginkey'
p20
S'1504475418'
p21
sS'wxsid'
p22
S'BVGtqiAe5HCA+4kU'
p23
sS'mm_lang'
p24
S'zh_CN'
p25
ssS'version'
p26
S'1.3.9'
p27
sS'storage'
p28
(dp29
S'userName'
p30
V@9d4498306284aff039ad04be7ceaeb91b70eb6831c2659e4a44f354c6cfd2305
p31
sS'lastInputUserName'
p32
NsS'memberList'
p33
ccopy_reg
_reconstructor
p34
(citchat.storage.templates
ContactList
p35
c__builtin__
list
p36
(lp37
g34
(citchat.storage.templates
User
p38
c__builtin__
dict
p39
(dp40
S'UserName'
p41
g31
sS'City'
p42
S''
p43
sS'DisplayName'
p44
g43
sS'UniFriend'
p45
I0
sS'OwnerUin'
p46
I0
sS'MemberList'
p47
g34
(g35
g36
(lp48
tp49
Rp50
I1
bsS'PYQuanPin'
p51
V
p52
sS'RemarkPYInitial'
p53
g52
sS'Uin'
p54
I1939681350
sS'AppAccountFlag'
p55
I0
sS'VerifyFlag'
p56
I0
sS'Province'
p57
g43
sS'KeyWord'
p58
g43
sS'RemarkName'
p59
g52
sS'PYInitial'
p60
g52
sS'ChatRoomId'
p61
I0
sS'HideInputBarFlag'
p62
I0
sVHeadImgFlag
p63
I1
sS'EncryChatRoomId'
p64
g43
sS'AttrStatus'
p65
I0
sS'SnsFlag'
p66
I0
sS'MemberCount'
p67
I0
sVWebWxPluginSwitch
p68
I0
sS'Alias'
p69
g43
sS'Signature'
p70
g52
sS'ContactFlag'
p71
I0
sS'NickName'
p72
VPurdue
p73
sS'RemarkPYQuanPin'
p74
g52
sS'HeadImgUrl'
p75
V/cgi-bin/mmwebwx-bin/webwxgeticon?seq=2071383520&username=@9d4498306284aff039ad04be7ceaeb91b70eb6831c2659e4a44f354c6cfd2305&skey=@crypt_79b06206_d5964e1a9c0679a2b22455a93a35bd1c
p76
sS'Sex'
p77
I0
sS'StarFriend'
p78
I0
sS'Statues'
p79
I0
stp80
Rp81
I1
bag34
(g38
g39
(dp82
VUserName
p83
V@9d147318b7c3a533e9086aced35b3d8f
p84
sVCity
p85
g52
sVSnsFlag
p86
I49
sVDisplayName
p87
g52
sVUniFriend
p88
I0
sVMemberCount
p89
I0
sVOwnerUin
p90
I0
sVMemberList
p91
g50
sVAlias
p92
g52
sVPYQuanPin
p93
Vzebo
p94
sVSignature
p95
V\u8fd9\u4e2a\u4e16\u754c\u4e0a\u4e5f\u8bb8\u53ea\u6709\u50bb\u5b50\u624d\u80fd\u8f7b\u677e\u6109\u5feb\u5730\u6d3b\u7740
p96
sVRemarkPYInitial
p97
g52
sVContactFlag
p98
I3
sVUin
p99
I0
sVNickName
p100
V\u5219\u535a
p101
sVAppAccountFlag
p102
I0
sVVerifyFlag
p103
I0
sVRemarkPYQuanPin
p104
g52
sVHeadImgUrl
p105
V/cgi-bin/mmwebwx-bin/webwxgeticon?seq=638620122&username=@9d147318b7c3a533e9086aced35b3d8f&skey=@crypt_79b06206_d5964e1a9c0679a2b22455a93a35bd1c
p106
sVKeyWord
p107
VDot
p108
sVProvince
p109
g52
sVPYInitial
p110
VZB
p111
sVRemarkName
p112
g52
sVIsOwner
p113
I0
sVSex
p114
I1
sVStarFriend
p115
I0
sVHideInputBarFlag
p116
I0
sVChatRoomId
p117
I0
sVEncryChatRoomId
p118
g52
sVAttrStatus
p119
I4292647
sVStatues
p120
I0
stp121
Rp122
I1
bag34
(g38
g39
(dp123
VUserName
p124
V@4e5289110332543ea0136ff9a4193a41501cd8942c2ec83fb49be116d4960524
p125
sVCity
p126
VLafayette City
p127
sVSnsFlag
p128
I49
sVDisplayName
p129
g52
sVUniFriend
p130
I0
sVMemberCount
p131
I0
sVOwnerUin
p132
I0
sVMemberList
p133
g50
sVAlias
p134
g52
sVPYQuanPin
p135
Vchaoran
p136
sVSignature
p137
VHi
p138
sVRemarkPYInitial
p139
g52
sVContactFlag
p140
I2051
sVUin
p141
I0
sVNickName
p142
V\u8d85\u7136
p143
sVAppAccountFlag
p144
I0
sVVerifyFlag
p145
I0
sVRemarkPYQuanPin
p146
g52
sVHeadImgUrl
p147
V/cgi-bin/mmwebwx-bin/webwxgeticon?seq=638620039&username=@4e5289110332543ea0136ff9a4193a41501cd8942c2ec83fb49be116d4960524&skey=@crypt_79b06206_d5964e1a9c0679a2b22455a93a35bd1c
p148
sVKeyWord
p149
g52
sVProvince
p150
VIndiana
p151
sVPYInitial
p152
VCR
p153
sVRemarkName
p154
g52
sVIsOwner
p155
I0
sVSex
p156
I1
sVStarFriend
p157
I0
sVHideInputBarFlag
p158
I0
sVChatRoomId
p159
I0
sVEncryChatRoomId
p160
g52
sVAttrStatus
p161
I2252832807
sVStatues
p162
I0
stp163
Rp164
I1
batp165
Rp166
I1
bsS'chatroomList'
p167
g34
(g35
g36
(lp168
g34
(citchat.storage.templates
Chatroom
p169
g39
(dp170
VUserName
p171
V@@2a894aeb1bf125d6f12184e05a7188be7ebf6336f8314e2e7cbf356147dfd2ca
p172
sVCity
p173
g52
sVDisplayName
p174
g52
sVUniFriend
p175
I0
sS'Self'
p176
g34
(citchat.storage.templates
ChatroomMember
p177
g39
(dp178
VUserName
p179
V@9d4498306284aff039ad04be7ceaeb91b70eb6831c2659e4a44f354c6cfd2305
p180
sVRemarkPYQuanPin
p181
g52
sVDisplayName
p182
g52
sVKeyWord
p183
g52
sVPYInitial
p184
g52
sVUin
p185
I0
sg47
g50
sVMemberStatus
p186
I0
sVPYQuanPin
p187
g52
sVRemarkPYInitial
p188
g52
sVNickName
p189
VPurdue
p190
sVAttrStatus
p191
I233509
stp192
Rp193
I1
bsVMemberList
p194
g34
(g35
g36
(lp195
g34
(g177
g39
(dp196
VUserName
p197
V@9d147318b7c3a533e9086aced35b3d8f
p198
sVRemarkPYQuanPin
p199
g52
sVDisplayName
p200
g52
sVKeyWord
p201
g52
sVPYInitial
p202
g52
sVUin
p203
I0
sg47
g50
sVMemberStatus
p204
I0
sVPYQuanPin
p205
g52
sVRemarkPYInitial
p206
g52
sVNickName
p207
V\u5219\u535a
p208
sVAttrStatus
p209
I4292647
stp210
Rp211
I1
bag34
(g177
g39
(dp212
VUserName
p213
V@4e5289110332543ea0136ff9a4193a41501cd8942c2ec83fb49be116d4960524
p214
sVRemarkPYQuanPin
p215
g52
sVDisplayName
p216
g52
sVKeyWord
p217
g52
sVPYInitial
p218
g52
sVUin
p219
I0
sg47
g50
sVMemberStatus
p220
I0
sVPYQuanPin
p221
g52
sVRemarkPYInitial
p222
g52
sVNickName
p223
V\u8d85\u7136
p224
sVAttrStatus
p225
I2252832807
stp226
Rp227
I1
bag34
(g177
g39
(dp228
VUserName
p229
V@57c1c4f9e2ed77664fed6e0de6c9310dd92dcb32dcc9a11165d86fa37b1f9744
p230
sVRemarkPYQuanPin
p231
g52
sVDisplayName
p232
g52
sVKeyWord
p233
g52
sVPYInitial
p234
g52
sVUin
p235
I0
sg47
g50
sVMemberStatus
p236
I0
sVPYQuanPin
p237
g52
sVRemarkPYInitial
p238
g52
sVNickName
p239
VStanford\u6e7e\u533a\u52a0\u7fa4\u52a9\u624b\U0001f430
p240
sVAttrStatus
p241
I33787943
stp242
Rp243
I1
bag34
(g177
g39
(dp244
VUserName
p245
V@f2b206c4d62f646cf76cdcd8f70380302dcb566cd028331c78a9bb80bb25a70f
p246
sVRemarkPYQuanPin
p247
g52
sVDisplayName
p248
g52
sVKeyWord
p249
g52
sVPYInitial
p250
g52
sVUin
p251
I0
sg47
g50
sVMemberStatus
p252
I0
sVPYQuanPin
p253
g52
sVRemarkPYInitial
p254
g52
sVNickName
p255
V\u6b64\u53f7\u5df2\u6ee1\uff0c\u52a0sfsuqun
p256
sVAttrStatus
p257
I233509
stp258
Rp259
I1
bag193
ag34
(g177
g39
(dp260
VUserName
p261
V@c893fb55d60dbf22777f6441c66ba34e2698eee76bf1fd543eac91858922a2e3
p262
sVRemarkPYQuanPin
p263
g52
sVDisplayName
p264
g52
sVKeyWord
p265
g52
sVPYInitial
p266
g52
sVUin
p267
I0
sg47
g50
sVMemberStatus
p268
I0
sVPYQuanPin
p269
g52
sVRemarkPYInitial
p270
g52
sVNickName
p271
VNY\u7ebd\u7ea6\u52a0\u7fa4\u5c0f\u52a9\u624b
p272
sVAttrStatus
p273
I33951781
stp274
Rp275
I1
bag34
(g177
g39
(dp276
VUserName
p277
V@a81817a7e12ce5635a27c79eef478d2b1d43bd7165b9c01b3d3f793d41b93a58
p278
sVRemarkPYQuanPin
p279
g52
sVDisplayName
p280
g52
sVKeyWord
p281
g52
sVPYInitial
p282
g52
sVUin
p283
I0
sg47
g50
sVMemberStatus
p284
I0
sVPYQuanPin
p285
g52
sVRemarkPYInitial
p286
g52
sVNickName
p287
VSFSU\u4e09\u756a\u52a0\u7fa4\u5c0f\u52a9\u624b
p288
sVAttrStatus
p289
I102437
stp290
Rp291
I1
batp292
Rp293
I1
bsVPYQuanPin
p294
VPurduepudupinchequnspanclassemojiemoji1f697span
p295
sVRemarkPYInitial
p296
g52
sVSex
p297
I0
sVHideInputBarFlag
p298
I0
sVAppAccountFlag
p299
I0
sVVerifyFlag
p300
I0
sVProvince
p301
g52
sVKeyWord
p302
g52
sVRemarkName
p303
g52
sVPYInitial
p304
VPURDUEPDPCQSPANCLASSEMOJIEMOJI1F697SPAN
p305
sVIsOwner
p306
I1
sVChatRoomId
p307
I0
sVContactType
p308
I0
sVChatRoomOwner
p309
V@9d4498306284aff039ad04be7ceaeb91b70eb6831c2659e4a44f354c6cfd2305
p310
sVEncryChatRoomId
p311
g52
sVAttrStatus
p312
I0
sVSnsFlag
p313
I0
sVMemberCount
p314
I7
sVOwnerUin
p315
I0
sVAlias
p316
g52
sS'IsAdmin'
p317
NsVSignature
p318
g52
sVContactFlag
p319
I2051
sVNickName
p320
VPurdue\u666e\u6e21\u62fc\u8f66\u7fa4\U0001f697
p321
sVRemarkPYQuanPin
p322
g52
sVHeadImgUrl
p323
V/cgi-bin/mmwebwx-bin/webwxgetheadimg?seq=638620292&username=@@2a894aeb1bf125d6f12184e05a7188be7ebf6336f8314e2e7cbf356147dfd2ca&skey=@crypt_79b06206_d5964e1a9c0679a2b22455a93a35bd1c
p324
sVUin
p325
I0
sVStarFriend
p326
I0
sVStatues
p327
I1
sVHeadImgUpdateFlag
p328
I1
stp329
Rp330
I1
bag34
(g169
g39
(dp331
VUserName
p332
V@@c179ac359259035cd8b38f610c6cdb5b9faa916bb2aff881dffcfc75bddc2809
p333
sVCity
p334
g52
sVDisplayName
p335
g52
sVUniFriend
p336
I0
sg176
g34
(g177
g39
(dp337
VUserName
p338
V@9d4498306284aff039ad04be7ceaeb91b70eb6831c2659e4a44f354c6cfd2305
p339
sVCity
p340
g52
sVDisplayName
p341
g52
sVUniFriend
p342
I0
sg47
g50
sVPYQuanPin
p343
VPurdue
p344
sVRemarkPYInitial
p345
g52
sVUin
p346
I0
sVAppAccountFlag
p347
I0
sVVerifyFlag
p348
I0
sVProvince
p349
g52
sVKeyWord
p350
g52
sVRemarkName
p351
g52
sVPYInitial
p352
VPURDUE
p353
sVChatRoomId
p354
I0
sVIsOwner
p355
I0
sVHideInputBarFlag
p356
I0
sVEncryChatRoomId
p357
V@e6c88c083440a6e5bf96f2fa9592dd53
p358
sVAttrStatus
p359
I233509
sVSnsFlag
p360
I0
sVMemberCount
p361
I0
sVOwnerUin
p362
I0
sVAlias
p363
g52
sVSignature
p364
g52
sVMemberStatus
p365
I0
sVContactFlag
p366
I0
sVNickName
p367
VPurdue
p368
sVRemarkPYQuanPin
p369
g52
sVHeadImgUrl
p370
V/cgi-bin/mmwebwx-bin/webwxgeticon?seq=0&username=@9d4498306284aff039ad04be7ceaeb91b70eb6831c2659e4a44f354c6cfd2305&chatroomid=@e6c88c083440a6e5bf96f2fa9592dd53&skey=
p371
sVSex
p372
I0
sVStarFriend
p373
I0
sVStatues
p374
I0
stp375
Rp376
I1
bsVMemberList
p377
g34
(g35
g36
(lp378
g34
(g177
g39
(dp379
VUserName
p380
V@9d147318b7c3a533e9086aced35b3d8f
p381
sVCity
p382
g52
sVDisplayName
p383
g52
sVUniFriend
p384
I0
sg47
g50
sVPYQuanPin
p385
Vzebo
p386
sVRemarkPYInitial
p387
g52
sVUin
p388
I0
sVAppAccountFlag
p389
I0
sVVerifyFlag
p390
I0
sVProvince
p391
g52
sVKeyWord
p392
VDot
p393
sVRemarkName
p394
g52
sVPYInitial
p395
VZB
p396
sVChatRoomId
p397
I0
sVIsOwner
p398
I0
sVHideInputBarFlag
p399
I0
sVEncryChatRoomId
p400
V@e6c88c083440a6e5bf96f2fa9592dd53
p401
sVAttrStatus
p402
I4292647
sVSnsFlag
p403
I49
sVMemberCount
p404
I0
sVOwnerUin
p405
I0
sVAlias
p406
g52
sVSignature
p407
V\u8fd9\u4e2a\u4e16\u754c\u4e0a\u4e5f\u8bb8\u53ea\u6709\u50bb\u5b50\u624d\u80fd\u8f7b\u677e\u6109\u5feb\u5730\u6d3b\u7740
p408
sVMemberStatus
p409
I0
sVContactFlag
p410
I3
sVNickName
p411
V\u5219\u535a
p412
sVRemarkPYQuanPin
p413
g52
sVHeadImgUrl
p414
V/cgi-bin/mmwebwx-bin/webwxgeticon?seq=638620122&username=@9d147318b7c3a533e9086aced35b3d8f&skey=
p415
sVSex
p416
I1
sVStarFriend
p417
I0
sVStatues
p418
I0
stp419
Rp420
I1
bag34
(g177
g39
(dp421
VUserName
p422
V@4e5289110332543ea0136ff9a4193a41501cd8942c2ec83fb49be116d4960524
p423
sVCity
p424
VLafayette City
p425
sVDisplayName
p426
g52
sVUniFriend
p427
I0
sg47
g50
sVPYQuanPin
p428
Vchaoran
p429
sVRemarkPYInitial
p430
g52
sVUin
p431
I0
sVAppAccountFlag
p432
I0
sVVerifyFlag
p433
I0
sVProvince
p434
VIndiana
p435
sVKeyWord
p436
g52
sVRemarkName
p437
g52
sVPYInitial
p438
VCR
p439
sVChatRoomId
p440
I0
sVIsOwner
p441
I0
sVHideInputBarFlag
p442
I0
sVEncryChatRoomId
p443
V@e6c88c083440a6e5bf96f2fa9592dd53
p444
sVAttrStatus
p445
I2252832807
sVSnsFlag
p446
I49
sVMemberCount
p447
I0
sVOwnerUin
p448
I0
sVAlias
p449
g52
sVSignature
p450
VHi
p451
sVMemberStatus
p452
I0
sVContactFlag
p453
I2051
sVNickName
p454
V\u8d85\u7136
p455
sVRemarkPYQuanPin
p456
g52
sVHeadImgUrl
p457
V/cgi-bin/mmwebwx-bin/webwxgeticon?seq=638620039&username=@4e5289110332543ea0136ff9a4193a41501cd8942c2ec83fb49be116d4960524&skey=
p458
sVSex
p459
I1
sVStarFriend
p460
I0
sVStatues
p461
I0
stp462
Rp463
I1
bag34
(g177
g39
(dp464
VUserName
p465
V@57c1c4f9e2ed77664fed6e0de6c9310dd92dcb32dcc9a11165d86fa37b1f9744
p466
sVCity
p467
VPalo Alto City
p468
sVDisplayName
p469
g52
sVUniFriend
p470
I0
sg47
g50
sVPYQuanPin
p471
VStanfordwanoujiaqunzhushouspanclassemojiemoji1f430span
p472
sVRemarkPYInitial
p473
g52
sVUin
p474
I0
sVAppAccountFlag
p475
I0
sVVerifyFlag
p476
I0
sVProvince
p477
VCalifornia
p478
sVKeyWord
p479
g52
sVRemarkName
p480
g52
sVPYInitial
p481
VSTANFORDWOJQZSSPANCLASSEMOJIEMOJI1F430SPAN
p482
sVChatRoomId
p483
I0
sVIsOwner
p484
I0
sVHideInputBarFlag
p485
I0
sVEncryChatRoomId
p486
V@e6c88c083440a6e5bf96f2fa9592dd53
p487
sVAttrStatus
p488
I33787943
sVSnsFlag
p489
I1
sVMemberCount
p490
I0
sVOwnerUin
p491
I0
sVAlias
p492
g52
sVSignature
p493
g52
sVMemberStatus
p494
I0
sVContactFlag
p495
I0
sVNickName
p496
VStanford\u6e7e\u533a\u52a0\u7fa4\u52a9\u624b\U0001f430
p497
sVRemarkPYQuanPin
p498
g52
sVHeadImgUrl
p499
V/cgi-bin/mmwebwx-bin/webwxgeticon?seq=0&username=@57c1c4f9e2ed77664fed6e0de6c9310dd92dcb32dcc9a11165d86fa37b1f9744&chatroomid=@e6c88c083440a6e5bf96f2fa9592dd53&skey=
p500
sVSex
p501
I2
sVStarFriend
p502
I0
sVStatues
p503
I0
stp504
Rp505
I1
bag34
(g177
g39
(dp506
VUserName
p507
V@26651559725fcb614ca0e5e4755d9b2446cf24521b5bc88f12291b84c79975f0
p508
sVCity
p509
VChampaign City
p510
sVDisplayName
p511
g52
sVUniFriend
p512
I0
sg47
g50
sVPYQuanPin
p513
VUIUCjiaqunjianqunxiaozhushou
p514
sVRemarkPYInitial
p515
g52
sVUin
p516
I0
sVAppAccountFlag
p517
I0
sVVerifyFlag
p518
I0
sVProvince
p519
VIllinois
p520
sVKeyWord
p521
g52
sVRemarkName
p522
g52
sVPYInitial
p523
VUIUCJQJQXZS
p524
sVChatRoomId
p525
I0
sVIsOwner
p526
I0
sVHideInputBarFlag
p527
I0
sVEncryChatRoomId
p528
V@e6c88c083440a6e5bf96f2fa9592dd53
p529
sVAttrStatus
p530
I33787943
sVSnsFlag
p531
I1
sVMemberCount
p532
I0
sVOwnerUin
p533
I0
sVAlias
p534
g52
sVSignature
p535
V\u8bf7\u52a0 \u5929\u5929 \u8fdb\u7fa4
p536
sVMemberStatus
p537
I0
sVContactFlag
p538
I0
sVNickName
p539
VUIUC\u52a0\u7fa4\u5efa\u7fa4\u5c0f\u52a9\u624b
p540
sVRemarkPYQuanPin
p541
g52
sVHeadImgUrl
p542
V/cgi-bin/mmwebwx-bin/webwxgeticon?seq=0&username=@26651559725fcb614ca0e5e4755d9b2446cf24521b5bc88f12291b84c79975f0&chatroomid=@e6c88c083440a6e5bf96f2fa9592dd53&skey=
p543
sVSex
p544
I2
sVStarFriend
p545
I0
sVStatues
p546
I0
stp547
Rp548
I1
bag34
(g177
g39
(dp549
VUserName
p550
V@c893fb55d60dbf22777f6441c66ba34e2698eee76bf1fd543eac91858922a2e3
p551
sVCity
p552
VNew York City
p553
sVDisplayName
p554
g52
sVUniFriend
p555
I0
sg47
g50
sVPYQuanPin
p556
VNYniuyaojiaqunxiaozhushou
p557
sVRemarkPYInitial
p558
g52
sVUin
p559
I0
sVAppAccountFlag
p560
I0
sVVerifyFlag
p561
I0
sVProvince
p562
VNew York
p563
sVKeyWord
p564
g52
sVRemarkName
p565
g52
sVPYInitial
p566
VNYNYJQXZS
p567
sVChatRoomId
p568
I0
sVIsOwner
p569
I0
sVHideInputBarFlag
p570
I0
sVEncryChatRoomId
p571
V@e6c88c083440a6e5bf96f2fa9592dd53
p572
sVAttrStatus
p573
I33951781
sVSnsFlag
p574
I1
sVMemberCount
p575
I0
sVOwnerUin
p576
I0
sVAlias
p577
g52
sVSignature
p578
g52
sVMemberStatus
p579
I0
sVContactFlag
p580
I0
sVNickName
p581
VNY\u7ebd\u7ea6\u52a0\u7fa4\u5c0f\u52a9\u624b
p582
sVRemarkPYQuanPin
p583
g52
sVHeadImgUrl
p584
V/cgi-bin/mmwebwx-bin/webwxgeticon?seq=0&username=@c893fb55d60dbf22777f6441c66ba34e2698eee76bf1fd543eac91858922a2e3&chatroomid=@e6c88c083440a6e5bf96f2fa9592dd53&skey=
p585
sVSex
p586
I2
sVStarFriend
p587
I0
sVStatues
p588
I0
stp589
Rp590
I1
bag376
atp591
Rp592
I1
bsVPYQuanPin
p593
VPurduepuduershouchequn
p594
sVRemarkPYInitial
p595
g52
sVSex
p596
I0
sVHideInputBarFlag
p597
I0
sVAppAccountFlag
p598
I0
sVVerifyFlag
p599
I0
sVProvince
p600
g52
sVKeyWord
p601
g52
sVRemarkName
p602
g52
sVPYInitial
p603
VPURDUEPDESCQ
p604
sVIsOwner
p605
I1
sVChatRoomId
p606
I0
sVContactType
p607
I0
sVChatRoomOwner
p608
V@9d4498306284aff039ad04be7ceaeb91b70eb6831c2659e4a44f354c6cfd2305
p609
sVEncryChatRoomId
p610
V@e6c88c083440a6e5bf96f2fa9592dd53
p611
sVAttrStatus
p612
I0
sVSnsFlag
p613
I0
sVMemberCount
p614
I6
sVOwnerUin
p615
I0
sVAlias
p616
g52
sg317
NsVSignature
p617
g52
sVContactFlag
p618
I2051
sVNickName
p619
VPurdue\u666e\u6e21\u4e8c\u624b\u8f66\u7fa4
p620
sVRemarkPYQuanPin
p621
g52
sVHeadImgUrl
p622
V/cgi-bin/mmwebwx-bin/webwxgetheadimg?seq=638620306&username=@@c179ac359259035cd8b38f610c6cdb5b9faa916bb2aff881dffcfc75bddc2809&skey=
p623
sVUin
p624
I0
sVStarFriend
p625
I0
sVStatues
p626
I1
sVHeadImgUpdateFlag
p627
I1
stp628
Rp629
I1
batp630
Rp631
I1
bsS'nickName'
p632
g73
sS'mpList'
p633
g34
(g35
g36
(lp634
tp635
Rp636
I1
bssS'loginInfo'
p637
(dp638
S'SyncKey'
p639
(dp640
VCount
p641
I9
sVList
p642
(lp643
(dp644
VVal
p645
I638620126
sVKey
p646
I1
sa(dp647
VVal
p648
I638620309
sVKey
p649
I2
sa(dp650
VVal
p651
I638620122
sVKey
p652
I3
sa(dp653
VVal
p654
I638620306
sVKey
p655
I11
sa(dp656
VVal
p657
I638620003
sVKey
p658
I13
sa(dp659
VVal
p660
I1504476868
sVKey
p661
I201
sa(dp662
VVal
p663
I1504476860
sVKey
p664
I203
sa(dp665
VVal
p666
I1504475418
sVKey
p667
I1000
sa(dp668
VVal
p669
I1504444172
sVKey
p670
I1001
sassS'syncUrl'
p671
S'https://webpush.web.wechat.com/cgi-bin/mmwebwx-bin'
p672
sS'skey'
p673
V@crypt_79b06206_d5964e1a9c0679a2b22455a93a35bd1c
p674
sS'wxuin'
p675
V1939681350
p676
sS'synckey'
p677
S'1_638620126|2_638620309|3_638620122|11_638620306|13_638620003|201_1504476868|203_1504476860|1000_1504475418|1001_1504444172'
p678
sS'url'
p679
Vhttps://web.wechat.com/cgi-bin/mmwebwx-bin
p680
sS'pass_ticket'
p681
VVoYi4IGvAwA%2BioIOR%2FYBeLR%2FQkLw%2FlxK9LoMqhhQP7Fi6wkaywQlnbgiPPe7XLnS
p682
sS'wxsid'
p683
VBVGtqiAe5HCA+4kU
p684
sS'User'
p685
g34
(g38
g39
(dp686
g41
g31
sg42
g43
sg44
g43
sg45
I0
sg47
g50
sg51
g52
sg53
g52
sg77
I0
sg55
I0
sg56
I0
sg57
g43
sg58
g43
sg59
g52
sg60
g52
sg61
I0
sg62
I0
sg63
I1
sg64
g43
sg65
I0
sg68
I0
sg66
I0
sg67
I0
sg46
I0
sg69
g43
sg70
g52
sg71
I0
sg72
g73
sg74
g52
sg75
g76
sg54
I1939681350
sg78
I0
sg79
I0
stp687
Rp688
I1
bsS'InviteStartCount'
p689
I40
sS'fileUrl'
p690
S'https://file.web.wechat.com/cgi-bin/mmwebwx-bin'
p691
sS'BaseRequest'
p692
(dp693
g54
g676
sS'Skey'
p694
g674
sS'DeviceID'
p695
g682
sS'Sid'
p696
g684
ssS'deviceid'
p697
S'e224984637073553'
p698
ss.